target datalayout = "e-m:e-p270:32:32-p271:32:32-p272:64:64-i64:64-i128:128-f80:128-n8:16:32:64-S128"
target triple = "x86_64-pc-linux-gnu"

%struct._lv_event_dsc_t = type { ptr, ptr, i32 }

; Function Attrs: nounwind uwtable
define internal zeroext i1 @event_is_marked_deleting(ptr noundef %0) #0 {
  %2 = alloca ptr, align 8
  store ptr %0, ptr %2, align 8, !tbaa !38
  %3 = load ptr, ptr %2, align 8, !tbaa !38
  %4 = getelementptr inbounds nuw %struct._lv_event_dsc_t, ptr %3, i32 0, i32 2
  %5 = load i32, ptr %4, align 8, !tbaa !42
  %6 = and i32 %5, 65536
  %7 = icmp ne i32 %6, 0
  ret i1 %7
}

; Function Attrs: nounwind uwtable
define internal void @cleanup_event_list_core(ptr noundef %0) #0 {
  %2 = alloca ptr, align 8
  %3 = alloca i32, align 4
  %4 = alloca i32, align 4
  %5 = alloca i32, align 4
  %6 = alloca ptr, align 8
  %7 = alloca ptr, align 8
  store ptr %0, ptr %2, align 8, !tbaa !50
  call void @llvm.lifetime.start.p0(i64 4, ptr %3) #4
  %8 = load ptr, ptr %2, align 8, !tbaa !50
  %9 = call i32 @lv_array_size(ptr noundef %8)
  store i32 %9, ptr %3, align 4, !tbaa !37
  call void @llvm.lifetime.start.p0(i64 4, ptr %4) #4
  store i32 0, ptr %4, align 4, !tbaa !37
  call void @llvm.lifetime.start.p0(i64 4, ptr %5) #4
  store i32 0, ptr %5, align 4, !tbaa !37
  br label %10

10:                                               ; preds = %35, %1
  %11 = load i32, ptr %5, align 4, !tbaa !37
  %12 = load i32, ptr %3, align 4, !tbaa !37
  %13 = icmp ult i32 %11, %12
  br i1 %13, label %15, label %14

14:                                               ; preds = %10
  call void @llvm.lifetime.end.p0(i64 4, ptr %5) #4
  br label %38

15:                                               ; preds = %10
  call void @llvm.lifetime.start.p0(i64 8, ptr %6) #4
  %16 = load ptr, ptr %2, align 8, !tbaa !50
  %17 = load i32, ptr %5, align 4, !tbaa !37
  %18 = call ptr @lv_array_at(ptr noundef %16, i32 noundef %17)
  store ptr %18, ptr %6, align 8, !tbaa !52
  call void @llvm.lifetime.start.p0(i64 8, ptr %7) #4
  %19 = load ptr, ptr %2, align 8, !tbaa !50
  %20 = load i32, ptr %4, align 4, !tbaa !37
  %21 = call ptr @lv_array_at(ptr noundef %19, i32 noundef %20)
  store ptr %21, ptr %7, align 8, !tbaa !52
  %22 = load ptr, ptr %6, align 8, !tbaa !52
  %23 = load ptr, ptr %22, align 8, !tbaa !38
  %24 = call zeroext i1 @event_is_marked_deleting(ptr noundef %23)
  br i1 %24, label %25, label %28

25:                                               ; preds = %15
  %26 = load ptr, ptr %6, align 8, !tbaa !52
  %27 = load ptr, ptr %26, align 8, !tbaa !38
  call void @lv_free(ptr noundef %27)
  br label %34

28:                                               ; preds = %15
  %29 = load ptr, ptr %6, align 8, !tbaa !52
  %30 = load ptr, ptr %29, align 8, !tbaa !38
  %31 = load ptr, ptr %7, align 8, !tbaa !52
  store ptr %30, ptr %31, align 8, !tbaa !38
  %32 = load i32, ptr %4, align 4, !tbaa !37
  %33 = add i32 %32, 1
  store i32 %33, ptr %4, align 4, !tbaa !37
  br label %34

34:                                               ; preds = %28, %25
  call void @llvm.lifetime.end.p0(i64 8, ptr %7) #4
  call void @llvm.lifetime.end.p0(i64 8, ptr %6) #4
  br label %35

35:                                               ; preds = %34
  %36 = load i32, ptr %5, align 4, !tbaa !37
  %37 = add i32 %36, 1
  store i32 %37, ptr %5, align 4, !tbaa !37
  br label %10, !llvm.loop !54

38:                                               ; preds = %14
  %39 = load i32, ptr %4, align 4, !tbaa !37
  %40 = icmp eq i32 %39, 0
  br i1 %40, label %41, label %43

41:                                               ; preds = %38
  %42 = load ptr, ptr %2, align 8, !tbaa !50
  call void @lv_array_deinit(ptr noundef %42)
  br label %47

43:                                               ; preds = %38
  %44 = load ptr, ptr %2, align 8, !tbaa !50
  %45 = load i32, ptr %4, align 4, !tbaa !37
  %46 = call zeroext i1 @lv_array_resize(ptr noundef %44, i32 noundef %45)
  br label %47

47:                                               ; preds = %43, %41
  call void @llvm.lifetime.end.p0(i64 4, ptr %4) #4
  call void @llvm.lifetime.end.p0(i64 4, ptr %3) #4
  ret void
}