; Function Attrs: nounwind uwtable
define internal fastcc void @cleanup_event_list_core(ptr noundef nonnull %0) unnamed_addr #2 {
  %2 = tail call i32 @lv_array_size(ptr noundef nonnull %0) #12
  %.not19 = icmp eq i32 %2, 0
  br i1 %.not19, label %._crit_edge.thread, label %.lr.ph

._crit_edge:                                      ; preds = %12
  %3 = icmp eq i32 %.1, 0
  br i1 %3, label %._crit_edge.thread, label %14

.lr.ph:                                           ; preds = %1, %12
  %.018 = phi i32 [ %.1, %12 ], [ 0, %1 ]
  %.01617 = phi i32 [ %13, %12 ], [ 0, %1 ]
  %4 = tail call ptr @lv_array_at(ptr noundef nonnull %0, i32 noundef %.01617) #12
  %5 = tail call ptr @lv_array_at(ptr noundef nonnull %0, i32 noundef %.018) #12
  %6 = load ptr, ptr %4, align 8, !tbaa !36
  %7 = getelementptr i8, ptr %6, i64 16
  %.val = load i32, ptr %7, align 8, !tbaa !40
  %8 = and i32 %.val, 65536
  %.not = icmp eq i32 %8, 0
  br i1 %.not, label %10, label %9

9:                                                ; preds = %.lr.ph
  tail call void @lv_free(ptr noundef nonnull %6) #12
  br label %12

10:                                               ; preds = %.lr.ph
  store ptr %6, ptr %5, align 8, !tbaa !36
  %11 = add i32 %.018, 1
  br label %12

12:                                               ; preds = %10, %9
  %.1 = phi i32 [ %.018, %9 ], [ %11, %10 ]
  %13 = add nuw i32 %.01617, 1
  %exitcond.not = icmp eq i32 %13, %2
  br i1 %exitcond.not, label %._crit_edge, label %.lr.ph, !llvm.loop !46

._crit_edge.thread:                               ; preds = %1, %._crit_edge
  tail call void @lv_array_deinit(ptr noundef nonnull %0) #12
  br label %16

14:                                               ; preds = %._crit_edge
  %15 = tail call zeroext i1 @lv_array_resize(ptr noundef nonnull %0, i32 noundef %.1) #12
  br label %16

16:                                               ; preds = %14, %._crit_edge.thread
  ret void
}